target datalayout = "e-m:e-p270:32:32-p271:32:32-p272:64:64-i64:64-i128:128-f80:128-n8:16:32:64-S128"
target triple = "x86_64-pc-linux-gnu"

%struct.ssl_connection_st = type { %struct.ssl_st, ptr, i32, ptr, ptr, ptr, i32, ptr, i32, i32, i32, i32, %struct.OSSL_TIME, %struct.OSSL_TIME, %struct.ossl_statem_st, i32, ptr, ptr, i64, i64, i64, %struct.ossl_quic_tls_callbacks_st, ptr, ptr, %struct.anon, ptr, ptr, ptr, i32, ptr, %struct.ssl_dane_st, ptr, ptr, ptr, ptr, i32, [64 x i8], [64 x i8], [64 x i8], [64 x i8], [64 x i8], [64 x i8], [64 x i8], [64 x i8], [64 x i8], [64 x i8], [64 x i8], [64 x i8], ptr, [64 x i8], i64, i32, i64, [32 x i8], ptr, ptr, ptr, i64, ptr, [32 x i8], i64, i32, ptr, ptr, i32, i32, ptr, ptr, ptr, ptr, ptr, i64, ptr, ptr, i64, i32, i32, i32, i64, i32, i32, i64, i64, i64, %struct.anon.1, ptr, i32, ptr, ptr, ptr, i32, ptr, ptr, ptr, i32, i32, i32, i32, ptr, i64, i32, ptr, %struct.srp_ctx_st, ptr, %struct.record_layer_st, ptr, ptr, ptr, ptr, i64, i32, i32, i32, i64, i64, i64, ptr, ptr, ptr, ptr, ptr, i64, ptr, i64, ptr, i64 }
%struct.ssl_st = type { i32, ptr, ptr, ptr, %struct.CRYPTO_REF_COUNT, ptr, %struct.crypto_ex_data_st }
%struct.CRYPTO_REF_COUNT = type { i32 }
%struct.crypto_ex_data_st = type { ptr, ptr }
%struct.OSSL_TIME = type { i64 }
%struct.ossl_statem_st = type { i32, i32, i32, i32, i32, i32, i32, i32, i32, i32, i32, i32, i32, ptr, ptr, ptr, i8 }
%struct.ossl_quic_tls_callbacks_st = type { ptr, ptr, ptr, ptr, ptr, ptr }
%struct.anon = type { i64, [32 x i8], [32 x i8], ptr, ptr, i32, i32, i32, i32, [2 x i8], i32, i32, i32, i32, %struct.anon.0, [64 x i8], i64, [64 x i8], i64, i32, i32, ptr, i64, ptr, i64, i32, i8, i8, i16, ptr, i16 }
%struct.anon.0 = type { [128 x i8], i64, [128 x i8], i64, i64, i32, ptr, ptr, [4 x ptr], [4 x i16], i64, i32, ptr, i64, ptr, i64, ptr, ptr, ptr, i32, i64, ptr, i32, ptr, i64, ptr, i64, ptr, i64, ptr, ptr, ptr, ptr, i64, i64, ptr, ptr, i32, i32, i32, i32 }
%struct.ssl_dane_st = type { ptr, ptr, ptr, ptr, ptr, i32, i32, i32, i64 }
%struct.anon.1 = type { [29 x i8], ptr, ptr, ptr, i32, ptr, i16, i32, %struct.anon.2, i32, i32, i64, ptr, i64, ptr, i64, ptr, i64, ptr, i64, ptr, i64, ptr, ptr, ptr, ptr, ptr, ptr, ptr, i64, ptr, i64, i32, i32, i32, i32, ptr, i64, i32, i8, i32, [4 x i32], i32, i8, i8, i8, i8 }
%struct.anon.2 = type { ptr, ptr, ptr, i64 }
%struct.srp_ctx_st = type { ptr, ptr, ptr, ptr, ptr, ptr, ptr, ptr, ptr, ptr, ptr, ptr, ptr, ptr, i32, i64 }
%struct.record_layer_st = type { ptr, ptr, ptr, ptr, ptr, ptr, ptr, ptr, i64, i32, i64, [4 x i8], i64, i64, i8, ptr, i32, ptr, ptr, ptr, i64, i64, i64, i64, [32 x %struct.tls_record_st] }
%struct.tls_record_st = type { ptr, i32, i8, ptr, ptr, i64, i64, i16, [8 x i8] }
%struct.ssl_ctx_st = type { ptr, ptr, ptr, ptr, ptr, ptr, ptr, i64, ptr, ptr, i32, %struct.OSSL_TIME, ptr, ptr, ptr, %struct.anon.3, %struct.CRYPTO_REF_COUNT, ptr, ptr, ptr, ptr, ptr, ptr, ptr, ptr, ptr, %struct.crypto_ex_data_st, ptr, ptr, ptr, ptr, ptr, ptr, ptr, i64, i32, i32, i32, i64, ptr, ptr, i32, ptr, ptr, i32, i64, [32 x i8], ptr, ptr, ptr, i32, ptr, ptr, ptr, i64, i64, i64, i64, ptr, ptr, ptr, ptr, ptr, %struct.anon.4, ptr, ptr, ptr, ptr, %struct.srp_ctx_st, %struct.dane_ctx_st, ptr, ptr, ptr, ptr, i32, i32, ptr, ptr, i64, i64, ptr, ptr, ptr, i64, ptr, ptr, i32, ptr, ptr, ptr, [14 x i32], [24 x ptr], [14 x ptr], [14 x i64], i64, ptr, ptr, ptr, i64, i64, ptr, i64, i64, i32, i32, i32, i32, ptr, i64, ptr, i64, i64, ptr, ptr }
%struct.anon.3 = type { i32, i32, i32, i32, i32, i32, i32, i32, i32, i32, i32 }
%struct.anon.4 = type { ptr, ptr, [16 x i8], ptr, ptr, ptr, ptr, ptr, i32, i8, i64, ptr, i64, ptr, i64, ptr, i64, ptr, ptr, i64, ptr, ptr, ptr, i64, ptr, ptr, ptr, ptr, [32 x i8] }
%struct.dane_ctx_st = type { ptr, ptr, i8, i64 }
%struct.ssl_session_st = type { i32, i64, [64 x i8], [512 x i8], i64, [32 x i8], i64, [32 x i8], ptr, ptr, i32, ptr, ptr, ptr, i64, %struct.OSSL_TIME, %struct.OSSL_TIME, %struct.OSSL_TIME, i32, ptr, i64, i32, %struct.crypto_ex_data_st, %struct.anon.5, ptr, ptr, i64, i32, ptr, ptr, ptr, %struct.CRYPTO_REF_COUNT }
%struct.anon.5 = type { ptr, ptr, i64, i64, i32, i32, ptr, i64, i8 }
%struct.ssl_cipher_st = type { i32, ptr, ptr, i32, i32, i32, i32, i32, i32, i32, i32, i32, i32, i32, i32, i32 }

@.str.1 = private unnamed_addr constant [27 x i8] c"../openssl/ssl/tls13_enc.c\00", align 1
@__func__.tls13_hkdf_expand = private unnamed_addr constant [18 x i8] c"tls13_hkdf_expand\00", align 1
@tls13_export_keying_material_early.exporterlabel = internal constant [9 x i8] c"exporter\00", align 1

; Function Attrs: nounwind uwtable
define dso_local i32 @tls13_hkdf_expand(ptr noundef %0, ptr noundef %1, ptr noundef %2, ptr noundef %3, i64 noundef %4, ptr noundef %5, i64 noundef %6, ptr noundef %7, i64 noundef %8, i32 noundef %9) #0 {
  %11 = alloca ptr, align 8
  %12 = alloca ptr, align 8
  %13 = alloca ptr, align 8
  %14 = alloca ptr, align 8
  %15 = alloca i64, align 8
  %16 = alloca ptr, align 8
  %17 = alloca i64, align 8
  %18 = alloca ptr, align 8
  %19 = alloca i64, align 8
  %20 = alloca i32, align 4
  %21 = alloca i32, align 4
  %22 = alloca ptr, align 8
  store ptr %0, ptr %11, align 8, !tbaa !25
  store ptr %1, ptr %12, align 8, !tbaa !11
  store ptr %2, ptr %13, align 8, !tbaa !9
  store ptr %3, ptr %14, align 8, !tbaa !9
  store i64 %4, ptr %15, align 8, !tbaa !13
  store ptr %5, ptr %16, align 8, !tbaa !9
  store i64 %6, ptr %17, align 8, !tbaa !13
  store ptr %7, ptr %18, align 8, !tbaa !9
  store i64 %8, ptr %19, align 8, !tbaa !13
  store i32 %9, ptr %20, align 4, !tbaa !15
  call void @llvm.lifetime.start.p0(i64 4, ptr %21) #5
  call void @llvm.lifetime.start.p0(i64 8, ptr %22) #5
  %23 = load ptr, ptr %11, align 8, !tbaa !25
  %24 = getelementptr inbounds nuw %struct.ssl_connection_st, ptr %23, i32 0, i32 0
  %25 = getelementptr inbounds nuw %struct.ssl_st, ptr %24, i32 0, i32 1
  %26 = load ptr, ptr %25, align 8, !tbaa !27
  store ptr %26, ptr %22, align 8, !tbaa !84
  %27 = load ptr, ptr %22, align 8, !tbaa !84
  %28 = getelementptr inbounds nuw %struct.ssl_ctx_st, ptr %27, i32 0, i32 0
  %29 = load ptr, ptr %28, align 8, !tbaa !85
  %30 = load ptr, ptr %22, align 8, !tbaa !84
  %31 = getelementptr inbounds nuw %struct.ssl_ctx_st, ptr %30, i32 0, i32 89
  %32 = load ptr, ptr %31, align 8, !tbaa !100
  %33 = load ptr, ptr %12, align 8, !tbaa !11
  %34 = load ptr, ptr %13, align 8, !tbaa !9
  %35 = load ptr, ptr %14, align 8, !tbaa !9
  %36 = load i64, ptr %15, align 8, !tbaa !13
  %37 = load ptr, ptr %16, align 8, !tbaa !9
  %38 = load i64, ptr %17, align 8, !tbaa !13
  %39 = load ptr, ptr %18, align 8, !tbaa !9
  %40 = load i64, ptr %19, align 8, !tbaa !13
  %41 = load i32, ptr %20, align 4, !tbaa !15
  %42 = icmp ne i32 %41, 0
  %43 = xor i1 %42, true
  %44 = zext i1 %43 to i32
  %45 = call i32 @tls13_hkdf_expand_ex(ptr noundef %29, ptr noundef %32, ptr noundef %33, ptr noundef %34, ptr noundef %35, i64 noundef %36, ptr noundef %37, i64 noundef %38, ptr noundef %39, i64 noundef %40, i32 noundef %44)
  store i32 %45, ptr %21, align 4, !tbaa !15
  %46 = load i32, ptr %21, align 4, !tbaa !15
  %47 = icmp eq i32 %46, 0
  br i1 %47, label %48, label %53

48:                                               ; preds = %10
  %49 = load i32, ptr %20, align 4, !tbaa !15
  %50 = icmp ne i32 %49, 0
  br i1 %50, label %51, label %53

51:                                               ; preds = %48
  call void @ERR_new()
  call void @ERR_set_debug(ptr noundef @.str.1, i32 noundef 113, ptr noundef @__func__.tls13_hkdf_expand)
  %52 = load ptr, ptr %11, align 8, !tbaa !25
  call void (ptr, i32, i32, ptr, ...) @ossl_statem_fatal(ptr noundef %52, i32 noundef 80, i32 noundef 786691, ptr noundef null)
  br label %53

53:                                               ; preds = %51, %48, %10
  %54 = load i32, ptr %21, align 4, !tbaa !15
  call void @llvm.lifetime.end.p0(i64 8, ptr %22) #5
  call void @llvm.lifetime.end.p0(i64 4, ptr %21) #5
  ret i32 %54
}

; Function Attrs: nounwind uwtable
define dso_local i32 @tls13_export_keying_material_early(ptr noundef %0, ptr noundef %1, i64 noundef %2, ptr noundef %3, i64 noundef %4, ptr noundef %5, i64 noundef %6) #0 {
  %8 = alloca ptr, align 8
  %9 = alloca ptr, align 8
  %10 = alloca i64, align 8
  %11 = alloca ptr, align 8
  %12 = alloca i64, align 8
  %13 = alloca ptr, align 8
  %14 = alloca i64, align 8
  %15 = alloca [64 x i8], align 16
  %16 = alloca [64 x i8], align 16
  %17 = alloca [64 x i8], align 16
  %18 = alloca ptr, align 8
  %19 = alloca ptr, align 8
  %20 = alloca i32, align 4
  %21 = alloca i32, align 4
  %22 = alloca i32, align 4
  %23 = alloca ptr, align 8
  store ptr %0, ptr %8, align 8, !tbaa !25
  store ptr %1, ptr %9, align 8, !tbaa !9
  store i64 %2, ptr %10, align 8, !tbaa !13
  store ptr %3, ptr %11, align 8, !tbaa !9
  store i64 %4, ptr %12, align 8, !tbaa !13
  store ptr %5, ptr %13, align 8, !tbaa !9
  store i64 %6, ptr %14, align 8, !tbaa !13
  call void @llvm.lifetime.start.p0(i64 64, ptr %15) #5
  call void @llvm.lifetime.start.p0(i64 64, ptr %16) #5
  call void @llvm.lifetime.start.p0(i64 64, ptr %17) #5
  call void @llvm.lifetime.start.p0(i64 8, ptr %18) #5
  call void @llvm.lifetime.start.p0(i64 8, ptr %19) #5
  %24 = call ptr @EVP_MD_CTX_new()
  store ptr %24, ptr %19, align 8, !tbaa !120
  call void @llvm.lifetime.start.p0(i64 4, ptr %20) #5
  call void @llvm.lifetime.start.p0(i64 4, ptr %21) #5
  call void @llvm.lifetime.start.p0(i64 4, ptr %22) #5
  store i32 0, ptr %22, align 4, !tbaa !15
  call void @llvm.lifetime.start.p0(i64 8, ptr %23) #5
  %25 = load ptr, ptr %19, align 8, !tbaa !120
  %26 = icmp eq ptr %25, null
  br i1 %26, label %31, label %27

27:                                               ; preds = %7
  %28 = load ptr, ptr %8, align 8, !tbaa !25
  %29 = call i32 @ossl_statem_export_early_allowed(ptr noundef %28)
  %30 = icmp ne i32 %29, 0
  br i1 %30, label %32, label %31

31:                                               ; preds = %27, %7
  br label %126

32:                                               ; preds = %27
  %33 = load ptr, ptr %8, align 8, !tbaa !25
  %34 = getelementptr inbounds nuw %struct.ssl_connection_st, ptr %33, i32 0, i32 8
  %35 = load i32, ptr %34, align 8, !tbaa !129
  %36 = icmp ne i32 %35, 0
  br i1 %36, label %55, label %37

37:                                               ; preds = %32
  %38 = load ptr, ptr %8, align 8, !tbaa !25
  %39 = getelementptr inbounds nuw %struct.ssl_connection_st, ptr %38, i32 0, i32 110
  %40 = load i32, ptr %39, align 8, !tbaa !124
  %41 = icmp ugt i32 %40, 0
  br i1 %41, label %42, label %55

42:                                               ; preds = %37
  %43 = load ptr, ptr %8, align 8, !tbaa !25
  %44 = getelementptr inbounds nuw %struct.ssl_connection_st, ptr %43, i32 0, i32 54
  %45 = load ptr, ptr %44, align 8, !tbaa !111
  %46 = getelementptr inbounds nuw %struct.ssl_session_st, ptr %45, i32 0, i32 23
  %47 = getelementptr inbounds nuw %struct.anon.5, ptr %46, i32 0, i32 5
  %48 = load i32, ptr %47, align 4, !tbaa !125
  %49 = icmp eq i32 %48, 0
  br i1 %49, label %50, label %55

50:                                               ; preds = %42
  %51 = load ptr, ptr %8, align 8, !tbaa !25
  %52 = getelementptr inbounds nuw %struct.ssl_connection_st, ptr %51, i32 0, i32 55
  %53 = load ptr, ptr %52, align 8, !tbaa !126
  %54 = call ptr @SSL_SESSION_get0_cipher(ptr noundef %53)
  store ptr %54, ptr %23, align 8, !tbaa !121
  br label %60

55:                                               ; preds = %42, %37, %32
  %56 = load ptr, ptr %8, align 8, !tbaa !25
  %57 = getelementptr inbounds nuw %struct.ssl_connection_st, ptr %56, i32 0, i32 54
  %58 = load ptr, ptr %57, align 8, !tbaa !111
  %59 = call ptr @SSL_SESSION_get0_cipher(ptr noundef %58)
  store ptr %59, ptr %23, align 8, !tbaa !121
  br label %60

60:                                               ; preds = %55, %50
  %61 = load ptr, ptr %8, align 8, !tbaa !25
  %62 = getelementptr inbounds nuw %struct.ssl_connection_st, ptr %61, i32 0, i32 0
  %63 = getelementptr inbounds nuw %struct.ssl_st, ptr %62, i32 0, i32 1
  %64 = load ptr, ptr %63, align 8, !tbaa !27
  %65 = load ptr, ptr %23, align 8, !tbaa !121
  %66 = getelementptr inbounds nuw %struct.ssl_cipher_st, ptr %65, i32 0, i32 13
  %67 = load i32, ptr %66, align 8, !tbaa !127
  %68 = call ptr @ssl_md(ptr noundef %64, i32 noundef %67)
  store ptr %68, ptr %18, align 8, !tbaa !11
  %69 = load ptr, ptr %18, align 8, !tbaa !11
  %70 = icmp eq ptr %69, null
  br i1 %70, label %124, label %71

71:                                               ; preds = %60
  %72 = load ptr, ptr %19, align 8, !tbaa !120
  %73 = load ptr, ptr %18, align 8, !tbaa !11
  %74 = call i32 @EVP_DigestInit_ex(ptr noundef %72, ptr noundef %73, ptr noundef null)
  %75 = icmp sle i32 %74, 0
  br i1 %75, label %124, label %76

76:                                               ; preds = %71
  %77 = load ptr, ptr %19, align 8, !tbaa !120
  %78 = load ptr, ptr %13, align 8, !tbaa !9
  %79 = load i64, ptr %14, align 8, !tbaa !13
  %80 = call i32 @EVP_DigestUpdate(ptr noundef %77, ptr noundef %78, i64 noundef %79)
  %81 = icmp sle i32 %80, 0
  br i1 %81, label %124, label %82

82:                                               ; preds = %76
  %83 = load ptr, ptr %19, align 8, !tbaa !120
  %84 = getelementptr inbounds [64 x i8], ptr %16, i64 0, i64 0
  %85 = call i32 @EVP_DigestFinal_ex(ptr noundef %83, ptr noundef %84, ptr noundef %20)
  %86 = icmp sle i32 %85, 0
  br i1 %86, label %124, label %87

87:                                               ; preds = %82
  %88 = load ptr, ptr %19, align 8, !tbaa !120
  %89 = load ptr, ptr %18, align 8, !tbaa !11
  %90 = call i32 @EVP_DigestInit_ex(ptr noundef %88, ptr noundef %89, ptr noundef null)
  %91 = icmp sle i32 %90, 0
  br i1 %91, label %124, label %92

92:                                               ; preds = %87
  %93 = load ptr, ptr %19, align 8, !tbaa !120
  %94 = getelementptr inbounds [64 x i8], ptr %17, i64 0, i64 0
  %95 = call i32 @EVP_DigestFinal_ex(ptr noundef %93, ptr noundef %94, ptr noundef %21)
  %96 = icmp sle i32 %95, 0
  br i1 %96, label %124, label %97

97:                                               ; preds = %92
  %98 = load ptr, ptr %8, align 8, !tbaa !25
  %99 = load ptr, ptr %18, align 8, !tbaa !11
  %100 = load ptr, ptr %8, align 8, !tbaa !25
  %101 = getelementptr inbounds nuw %struct.ssl_connection_st, ptr %100, i32 0, i32 47
  %102 = getelementptr inbounds [64 x i8], ptr %101, i64 0, i64 0
  %103 = load ptr, ptr %11, align 8, !tbaa !9
  %104 = load i64, ptr %12, align 8, !tbaa !13
  %105 = getelementptr inbounds [64 x i8], ptr %17, i64 0, i64 0
  %106 = load i32, ptr %21, align 4, !tbaa !15
  %107 = zext i32 %106 to i64
  %108 = getelementptr inbounds [64 x i8], ptr %15, i64 0, i64 0
  %109 = load i32, ptr %20, align 4, !tbaa !15
  %110 = zext i32 %109 to i64
  %111 = call i32 @tls13_hkdf_expand(ptr noundef %98, ptr noundef %99, ptr noundef %102, ptr noundef %103, i64 noundef %104, ptr noundef %105, i64 noundef %107, ptr noundef %108, i64 noundef %110, i32 noundef 0)
  %112 = icmp ne i32 %111, 0
  br i1 %112, label %113, label %124

113:                                              ; preds = %97
  %114 = load ptr, ptr %8, align 8, !tbaa !25
  %115 = load ptr, ptr %18, align 8, !tbaa !11
  %116 = getelementptr inbounds [64 x i8], ptr %15, i64 0, i64 0
  %117 = getelementptr inbounds [64 x i8], ptr %16, i64 0, i64 0
  %118 = load i32, ptr %20, align 4, !tbaa !15
  %119 = zext i32 %118 to i64
  %120 = load ptr, ptr %9, align 8, !tbaa !9
  %121 = load i64, ptr %10, align 8, !tbaa !13
  %122 = call i32 @tls13_hkdf_expand(ptr noundef %114, ptr noundef %115, ptr noundef %116, ptr noundef @tls13_export_keying_material_early.exporterlabel, i64 noundef 8, ptr noundef %117, i64 noundef %119, ptr noundef %120, i64 noundef %121, i32 noundef 0)
  %123 = icmp ne i32 %122, 0
  br i1 %123, label %125, label %124

124:                                              ; preds = %113, %97, %92, %87, %82, %76, %71, %60
  br label %126

125:                                              ; preds = %113
  store i32 1, ptr %22, align 4, !tbaa !15
  br label %126

126:                                              ; preds = %125, %124, %31
  %127 = load ptr, ptr %19, align 8, !tbaa !120
  call void @EVP_MD_CTX_free(ptr noundef %127)
  %128 = load i32, ptr %22, align 4, !tbaa !15
  call void @llvm.lifetime.end.p0(i64 8, ptr %23) #5
  call void @llvm.lifetime.end.p0(i64 4, ptr %22) #5
  call void @llvm.lifetime.end.p0(i64 4, ptr %21) #5
  call void @llvm.lifetime.end.p0(i64 4, ptr %20) #5
  call void @llvm.lifetime.end.p0(i64 8, ptr %19) #5
  call void @llvm.lifetime.end.p0(i64 8, ptr %18) #5
  call void @llvm.lifetime.end.p0(i64 64, ptr %17) #5
  call void @llvm.lifetime.end.p0(i64 64, ptr %16) #5
  call void @llvm.lifetime.end.p0(i64 64, ptr %15) #5
  ret i32 %128
}