; Function Attrs: nounwind uwtable
define dso_local range(i32 0, 2) i32 @tls13_export_keying_material_early(ptr noundef %0, ptr noundef %1, i64 noundef %2, ptr noundef %3, i64 noundef %4, ptr noundef %5, i64 noundef %6) local_unnamed_addr #0 {
  %8 = alloca [64 x i8], align 16
  %9 = alloca [64 x i8], align 16
  %10 = alloca [64 x i8], align 16
  %11 = alloca i32, align 4
  %12 = alloca i32, align 4
  call void @llvm.lifetime.start.p0(i64 64, ptr nonnull %8) #4
  call void @llvm.lifetime.start.p0(i64 64, ptr nonnull %9) #4
  call void @llvm.lifetime.start.p0(i64 64, ptr nonnull %10) #4
  %13 = tail call ptr @EVP_MD_CTX_new() #4
  call void @llvm.lifetime.start.p0(i64 4, ptr nonnull %11) #4
  call void @llvm.lifetime.start.p0(i64 4, ptr nonnull %12) #4
  %14 = icmp eq ptr %13, null
  br i1 %14, label %74, label %15

15:                                               ; preds = %7
  %16 = tail call i32 @ossl_statem_export_early_allowed(ptr noundef %0) #4
  %.not = icmp eq i32 %16, 0
  br i1 %.not, label %74, label %17

17:                                               ; preds = %15
  %18 = getelementptr inbounds nuw i8, ptr %0, i64 120
  %19 = load i32, ptr %18, align 8, !tbaa !119
  %.not32 = icmp eq i32 %19, 0
  br i1 %.not32, label %20, label %29

20:                                               ; preds = %17
  %21 = getelementptr inbounds nuw i8, ptr %0, i64 5440
  %22 = load i32, ptr %21, align 8, !tbaa !113
  %.not33 = icmp eq i32 %22, 0
  br i1 %.not33, label %29, label %23

23:                                               ; preds = %20
  %24 = getelementptr inbounds nuw i8, ptr %0, i64 2304
  %25 = load ptr, ptr %24, align 8, !tbaa !101
  %26 = getelementptr inbounds nuw i8, ptr %25, i64 836
  %27 = load i32, ptr %26, align 4, !tbaa !114
  %28 = icmp eq i32 %27, 0
  br i1 %28, label %30, label %29

29:                                               ; preds = %23, %20, %17
  br label %30

30:                                               ; preds = %23, %29
  %.sink = phi i64 [ 2304, %29 ], [ 2312, %23 ]
  %31 = getelementptr inbounds nuw i8, ptr %0, i64 %.sink
  %32 = load ptr, ptr %31, align 8, !tbaa !126
  %33 = tail call ptr @SSL_SESSION_get0_cipher(ptr noundef %32) #4
  %34 = getelementptr inbounds nuw i8, ptr %0, i64 8
  %35 = load ptr, ptr %34, align 8, !tbaa !15
  %36 = getelementptr inbounds nuw i8, ptr %33, i64 64
  %37 = load i32, ptr %36, align 8, !tbaa !116
  %38 = tail call ptr @ssl_md(ptr noundef %35, i32 noundef %37) #4
  %39 = icmp eq ptr %38, null
  br i1 %39, label %74, label %40

40:                                               ; preds = %30
  %41 = tail call i32 @EVP_DigestInit_ex(ptr noundef nonnull %13, ptr noundef nonnull %38, ptr noundef null) #4
  %42 = icmp slt i32 %41, 1
  br i1 %42, label %74, label %43

43:                                               ; preds = %40
  %44 = tail call i32 @EVP_DigestUpdate(ptr noundef nonnull %13, ptr noundef %5, i64 noundef %6) #4
  %45 = icmp slt i32 %44, 1
  br i1 %45, label %74, label %46

46:                                               ; preds = %43
  %47 = call i32 @EVP_DigestFinal_ex(ptr noundef nonnull %13, ptr noundef nonnull %9, ptr noundef nonnull %11) #4
  %48 = icmp slt i32 %47, 1
  br i1 %48, label %74, label %49

49:                                               ; preds = %46
  %50 = call i32 @EVP_DigestInit_ex(ptr noundef nonnull %13, ptr noundef nonnull %38, ptr noundef null) #4
  %51 = icmp slt i32 %50, 1
  br i1 %51, label %74, label %52

52:                                               ; preds = %49
  %53 = call i32 @EVP_DigestFinal_ex(ptr noundef nonnull %13, ptr noundef nonnull %10, ptr noundef nonnull %12) #4
  %54 = icmp slt i32 %53, 1
  br i1 %54, label %74, label %55

55:                                               ; preds = %52
  %56 = getelementptr inbounds nuw i8, ptr %0, i64 2108
  %57 = load i32, ptr %12, align 4, !tbaa !4
  %58 = zext i32 %57 to i64
  %59 = load i32, ptr %11, align 4, !tbaa !4
  %60 = zext i32 %59 to i64
  %61 = load ptr, ptr %34, align 8, !tbaa !15
  %62 = load ptr, ptr %61, align 8, !tbaa !75
  %63 = getelementptr inbounds nuw i8, ptr %61, i64 1152
  %64 = load ptr, ptr %63, align 8, !tbaa !90
  %65 = call i32 @tls13_hkdf_expand_ex(ptr noundef %62, ptr noundef %64, ptr noundef nonnull %38, ptr noundef nonnull %56, ptr noundef %3, i64 noundef %4, ptr noundef nonnull %10, i64 noundef %58, ptr noundef nonnull %8, i64 noundef %60, i32 noundef 1)
  %.not34 = icmp eq i32 %65, 0
  br i1 %.not34, label %74, label %66

66:                                               ; preds = %55
  %67 = load i32, ptr %11, align 4, !tbaa !4
  %68 = zext i32 %67 to i64
  %69 = load ptr, ptr %34, align 8, !tbaa !15
  %70 = load ptr, ptr %69, align 8, !tbaa !75
  %71 = getelementptr inbounds nuw i8, ptr %69, i64 1152
  %72 = load ptr, ptr %71, align 8, !tbaa !90
  %73 = call i32 @tls13_hkdf_expand_ex(ptr noundef %70, ptr noundef %72, ptr noundef nonnull %38, ptr noundef nonnull %8, ptr noundef nonnull @tls13_export_keying_material_early.exporterlabel, i64 noundef 8, ptr noundef nonnull %9, i64 noundef %68, ptr noundef %1, i64 noundef %2, i32 noundef 1)
  br label %74

74:                                               ; preds = %66, %30, %40, %43, %46, %49, %52, %55, %7, %15
  %.029 = phi i32 [ 0, %7 ], [ 0, %30 ], [ 0, %40 ], [ 0, %43 ], [ 0, %46 ], [ 0, %49 ], [ 0, %52 ], [ 0, %55 ], [ 0, %15 ], [ %73, %66 ]
  call void @EVP_MD_CTX_free(ptr noundef %13) #4
  call void @llvm.lifetime.end.p0(i64 4, ptr nonnull %12) #4
  call void @llvm.lifetime.end.p0(i64 4, ptr nonnull %11) #4
  call void @llvm.lifetime.end.p0(i64 64, ptr nonnull %10) #4
  call void @llvm.lifetime.end.p0(i64 64, ptr nonnull %9) #4
  call void @llvm.lifetime.end.p0(i64 64, ptr nonnull %8) #4
  ret i32 %.029
}